Certificate:
    Data:
        Version: 3 (0x2)
        Serial Number: 1 (0x1)
        Signature Algorithm: sha256WithRSAEncryption
        Issuer: O=Test Org, CN=Test Org rauc CA Development
        Validity
            Not Before: Jan  1 00:00:00 1970 GMT
            Not After : Dec 31 23:59:59 9999 GMT
        Subject: O=Test Org, CN=Test Org rauc CA Development
        Subject Public Key Info:
            Public Key Algorithm: rsaEncryption
                RSA Public-Key: (2048 bit)
                Modulus:
                    00:d6:37:27:78:1f:f5:67:bd:d2:34:43:eb:3e:1e:
                    28:e1:7f:d6:bc:25:9c:4b:5b:f0:d4:4a:47:93:98:
                    2c:a7:41:56:6d:eb:3f:69:43:e2:c5:6f:33:70:10:
                    5c:2f:b2:7c:06:89:89:f2:c0:6a:bd:99:92:74:53:
                    56:5e:2b:d7:12:8a:55:58:cc:3b:55:05:62:76:b4:
                    bb:b5:60:cd:83:a2:f9:e3:22:22:54:23:61:64:e1:
                    22:c1:44:7e:10:b3:38:c5:19:ed:52:70:6d:b4:e6:
                    74:45:c8:c7:fe:58:45:21:54:58:ea:ab:19:ab:23:
                    1f:43:b5:08:b2:a8:8c:c8:f9:99:d1:f5:df:12:a6:
                    54:bb:96:dc:e2:fd:73:ab:c9:4c:1b:57:16:ef:f7:
                    e7:8b:d7:de:7b:6b:dc:45:57:d1:a8:60:0d:79:2b:
                    4b:fc:35:eb:84:e0:eb:ac:13:0c:39:38:5b:e7:4a:
                    58:61:95:aa:90:01:c4:cd:31:60:56:72:00:31:f2:
                    af:6a:c5:31:fb:d0:fd:ba:ed:0f:55:46:15:67:dc:
                    40:1e:34:45:91:89:2a:61:c4:be:e1:6b:93:3f:ac:
                    9f:4b:38:52:f9:f7:1f:c1:b0:d9:d6:10:76:f3:7f:
                    58:8f:a3:8f:54:1b:87:4f:c4:3b:d7:f9:7d:ca:cb:
                    32:df
                Exponent: 65537 (0x10001)
        X509v3 extensions:
            X509v3 Subject Key Identifier: 
                BA:2B:2A:15:E3:5E:3E:BF:4F:2E:F5:3D:CE:53:DD:0B:0B:E2:E5:D4
            X509v3 Authority Key Identifier: 
                keyid:BA:2B:2A:15:E3:5E:3E:BF:4F:2E:F5:3D:CE:53:DD:0B:0B:E2:E5:D4
                DirName:/O=Test Org/CN=Test Org rauc CA Development
                serial:01

            X509v3 Basic Constraints: 
                CA:TRUE
    Signature Algorithm: sha256WithRSAEncryption
         8c:f1:aa:25:f6:02:c9:66:1e:0d:fb:61:7c:f2:12:0e:8f:f0:
         74:e5:25:54:be:c3:0b:68:31:32:c6:aa:1e:f3:58:4e:3b:bb:
         8e:33:8d:01:11:b9:50:74:3a:65:84:9e:29:a9:b2:df:c8:14:
         28:61:06:88:cb:41:a6:fb:09:2a:c6:88:d4:f6:f1:66:c1:f0:
         32:ce:4c:10:b3:90:74:b5:ec:2a:02:3d:84:68:c1:42:ac:07:
         ca:fa:3b:2f:e9:aa:d6:11:e8:e0:dd:cf:09:f7:20:9c:f6:8b:
         a4:8a:b1:17:aa:c1:15:5f:f0:68:cb:bf:da:91:c5:1d:5a:fb:
         5a:d4:79:7c:c5:16:61:24:7b:27:74:34:70:73:83:9a:c1:c3:
         8d:c1:b5:ea:9e:55:34:d3:67:87:97:88:28:05:e5:f2:05:97:
         f3:99:54:8b:4e:09:fa:77:36:6f:c4:7c:1e:0d:f2:e7:94:66:
         d5:a3:96:f1:22:65:20:60:d1:29:78:4d:d9:ed:c1:00:a4:c4:
         75:c4:e0:d4:4c:2e:ed:45:c7:e7:dc:7b:71:d0:d3:00:3c:c9:
         e4:3f:4d:e4:bc:92:b1:f7:1e:f3:5c:af:7b:24:0e:60:6a:87:
         6a:2f:ff:ac:6c:16:e9:ba:38:d3:3b:78:e0:2c:ab:3c:dd:bc:
         08:bc:18:0a
-----BEGIN CERTIFICATE-----
MIIDhjCCAm6gAwIBAgIBATANBgkqhkiG9w0BAQsFADA6MREwDwYDVQQKDAhUZXN0
IE9yZzElMCMGA1UEAwwcVGVzdCBPcmcgcmF1YyBDQSBEZXZlbG9wbWVudDAgFw03
MDAxMDEwMDAwMDBaGA85OTk5MTIzMTIzNTk1OVowOjERMA8GA1UECgwIVGVzdCBP
cmcxJTAjBgNVBAMMHFRlc3QgT3JnIHJhdWMgQ0EgRGV2ZWxvcG1lbnQwggEiMA0G
CSqGSIb3DQEBAQUAA4IBDwAwggEKAoIBAQDWNyd4H/VnvdI0Q+s+Hijhf9a8JZxL
W/DUSkeTmCynQVZt6z9pQ+LFbzNwEFwvsnwGiYnywGq9mZJ0U1ZeK9cSilVYzDtV
BWJ2tLu1YM2DovnjIiJUI2Fk4SLBRH4QszjFGe1ScG205nRFyMf+WEUhVFjqqxmr
Ix9DtQiyqIzI+ZnR9d8SplS7ltzi/XOryUwbVxbv9+eL1957a9xFV9GoYA15K0v8
NeuE4OusEww5OFvnSlhhlaqQAcTNMWBWcgAx8q9qxTH70P267Q9VRhVn3EAeNEWR
iSphxL7ha5M/rJ9LOFL59x/BsNnWEHbzf1iPo49UG4dPxDvX+X3KyzLfAgMBAAGj
gZQwgZEwHQYDVR0OBBYEFLorKhXjXj6/Ty71Pc5T3QsL4uXUMGIGA1UdIwRbMFmA
FLorKhXjXj6/Ty71Pc5T3QsL4uXUoT6kPDA6MREwDwYDVQQKDAhUZXN0IE9yZzEl
MCMGA1UEAwwcVGVzdCBPcmcgcmF1YyBDQSBEZXZlbG9wbWVudIIBATAMBgNVHRME
BTADAQH/MA0GCSqGSIb3DQEBCwUAA4IBAQCM8aol9gLJZh4N+2F88hIOj/B05SVU
vsMLaDEyxqoe81hOO7uOM40BEblQdDplhJ4pqbLfyBQoYQaIy0Gm+wkqxojU9vFm
wfAyzkwQs5B0tewqAj2EaMFCrAfK+jsv6arWEejg3c8J9yCc9oukirEXqsEVX/Bo
y7/akcUdWvta1Hl8xRZhJHsndDRwc4OawcONwbXqnlU002eHl4goBeXyBZfzmVSL
Tgn6dzZvxHweDfLnlGbVo5bxImUgYNEpeE3Z7cEApMR1xODUTC7tRcfn3Htx0NMA
PMnkP03kvJKx9x7zXK97JA5gaodqL/+sbBbpujjTO3jgLKs83bwIvBgK
-----END CERTIFICATE-----
