Certificate:
    Data:
        Version: 3 (0x2)
        Serial Number: 2 (0x2)
        Signature Algorithm: sha256WithRSAEncryption
        Issuer: O=Test Org, CN=Test Org rauc CA Development
        Validity
            Not Before: Jan  1 00:00:00 1970 GMT
            Not After : Dec 31 23:59:59 9999 GMT
        Subject: O=Test Org, CN=Test Org Development-1
        Subject Public Key Info:
            Public Key Algorithm: rsaEncryption
                RSA Public-Key: (2048 bit)
                Modulus:
                    00:c0:1e:32:6e:cc:dc:2c:8f:46:57:e1:4e:df:f5:
                    fa:74:e0:2e:5a:4f:b7:6d:79:c1:2b:6d:08:3d:43:
                    1b:e0:84:73:df:31:03:2a:64:2d:a0:e4:ab:6a:67:
                    38:da:8b:2a:dd:60:81:ff:4c:18:66:aa:47:bf:6e:
                    de:bc:9a:9d:6c:7e:d6:b5:6b:24:28:8d:3e:8b:14:
                    f5:28:04:61:07:47:53:a4:61:64:32:a9:c0:63:1a:
                    68:1c:ca:41:3e:5c:33:cf:ee:03:02:68:76:c5:c7:
                    ec:60:4d:9b:a0:0a:46:29:2c:01:c4:56:59:41:b1:
                    c2:b4:98:19:2c:a5:29:4f:08:3d:23:08:17:86:b1:
                    4e:80:2f:6b:03:3b:48:a4:77:ca:f3:b8:ed:70:a5:
                    94:a0:5a:72:d2:c1:7d:b6:86:81:7d:53:97:7c:bc:
                    f4:9e:81:06:34:d3:df:63:b5:43:b0:44:49:19:65:
                    02:ad:81:cd:fe:ab:da:c2:56:55:9a:1c:2e:d6:fa:
                    78:7e:d8:31:76:5d:bf:47:82:ce:74:15:1a:59:ec:
                    57:0f:fe:32:25:3d:b5:b4:6b:3f:cc:18:97:e5:46:
                    40:20:a2:db:9d:83:a6:1a:fd:b4:73:d8:e1:19:46:
                    29:26:7f:a0:dd:6d:b5:17:cb:15:e7:c2:4f:71:75:
                    10:db
                Exponent: 65537 (0x10001)
        X509v3 extensions:
            X509v3 Subject Key Identifier: 
                21:BF:BE:68:66:12:04:5D:D9:B0:AE:0E:9D:62:DD:2C:70:20:48:F4
            X509v3 Authority Key Identifier: 
                keyid:BA:2B:2A:15:E3:5E:3E:BF:4F:2E:F5:3D:CE:53:DD:0B:0B:E2:E5:D4
                DirName:/O=Test Org/CN=Test Org rauc CA Development
                serial:01

            X509v3 Basic Constraints: 
                CA:FALSE
    Signature Algorithm: sha256WithRSAEncryption
         83:84:26:0e:7a:f4:5d:04:80:5a:27:13:4d:e4:b4:ea:01:b4:
         1a:85:8d:a3:1d:cd:e2:aa:7b:d9:7d:33:aa:b4:4d:8a:d6:44:
         14:82:8d:a0:10:9c:ea:de:19:06:b2:d6:a7:ac:e4:8a:de:d4:
         43:3e:21:ee:a3:45:9b:1b:1b:10:8f:20:b4:38:c4:bc:71:6f:
         e9:d5:7e:02:86:e5:99:f0:c9:3e:3a:33:91:8d:b0:2d:f2:b0:
         a7:fb:25:54:4c:c5:6c:c1:a3:9d:b8:5b:97:a3:a8:9c:f7:83:
         ad:96:6b:df:38:d5:b0:4e:f1:9b:af:e8:57:c0:1b:65:6a:55:
         67:5b:44:c8:29:07:2c:ce:3a:ad:66:78:4d:fc:c5:51:aa:7d:
         72:77:c4:97:3e:c9:3b:ca:90:50:39:23:e7:97:98:92:f9:ff:
         27:d8:a3:59:cf:58:43:4b:6f:ff:56:52:26:e1:1a:ac:b1:de:
         7c:85:2b:3b:a5:16:ff:24:8e:3b:88:5f:6e:bd:02:dc:3f:2c:
         59:56:d1:ba:6e:ca:11:f3:3a:1f:20:17:58:81:63:95:e9:07:
         f5:2c:45:00:14:c7:43:8d:76:80:e3:83:25:4d:eb:86:81:f8:
         0a:08:74:76:7f:95:93:33:fd:f3:46:20:dc:9e:e4:13:7f:34:
         f7:0b:c9:84
-----BEGIN CERTIFICATE-----
MIIDfTCCAmWgAwIBAgIBAjANBgkqhkiG9w0BAQsFADA6MREwDwYDVQQKDAhUZXN0
IE9yZzElMCMGA1UEAwwcVGVzdCBPcmcgcmF1YyBDQSBEZXZlbG9wbWVudDAgFw03
MDAxMDEwMDAwMDBaGA85OTk5MTIzMTIzNTk1OVowNDERMA8GA1UECgwIVGVzdCBP
cmcxHzAdBgNVBAMMFlRlc3QgT3JnIERldmVsb3BtZW50LTEwggEiMA0GCSqGSIb3
DQEBAQUAA4IBDwAwggEKAoIBAQDAHjJuzNwsj0ZX4U7f9fp04C5aT7dtecErbQg9
QxvghHPfMQMqZC2g5KtqZzjaiyrdYIH/TBhmqke/bt68mp1sfta1ayQojT6LFPUo
BGEHR1OkYWQyqcBjGmgcykE+XDPP7gMCaHbFx+xgTZugCkYpLAHEVllBscK0mBks
pSlPCD0jCBeGsU6AL2sDO0ikd8rzuO1wpZSgWnLSwX22hoF9U5d8vPSegQY0099j
tUOwREkZZQKtgc3+q9rCVlWaHC7W+nh+2DF2Xb9Hgs50FRpZ7FcP/jIlPbW0az/M
GJflRkAgotudg6Ya/bRz2OEZRikmf6DdbbUXyxXnwk9xdRDbAgMBAAGjgZEwgY4w
HQYDVR0OBBYEFCG/vmhmEgRd2bCuDp1i3SxwIEj0MGIGA1UdIwRbMFmAFLorKhXj
Xj6/Ty71Pc5T3QsL4uXUoT6kPDA6MREwDwYDVQQKDAhUZXN0IE9yZzElMCMGA1UE
AwwcVGVzdCBPcmcgcmF1YyBDQSBEZXZlbG9wbWVudIIBATAJBgNVHRMEAjAAMA0G
CSqGSIb3DQEBCwUAA4IBAQCDhCYOevRdBIBaJxNN5LTqAbQahY2jHc3iqnvZfTOq
tE2K1kQUgo2gEJzq3hkGstanrOSK3tRDPiHuo0WbGxsQjyC0OMS8cW/p1X4ChuWZ
8Mk+OjORjbAt8rCn+yVUTMVswaOduFuXo6ic94OtlmvfONWwTvGbr+hXwBtlalVn
W0TIKQcszjqtZnhN/MVRqn1yd8SXPsk7ypBQOSPnl5iS+f8n2KNZz1hDS2//VlIm
4Rqssd58hSs7pRb/JI47iF9uvQLcPyxZVtG6bsoR8zofIBdYgWOV6Qf1LEUAFMdD
jXaA44MlTeuGgfgKCHR2f5WTM/3zRiDcnuQTfzT3C8mE
-----END CERTIFICATE-----
